target datalayout = "e-m:e-p270:32:32-p271:32:32-p272:64:64-i64:64-i128:128-f80:128-n8:16:32:64-S128"
target triple = "x86_64-pc-linux-gnu"

; Function Attrs: nounwind uwtable
define internal void @inv_predict_10(ptr noundef %0, ptr noundef %1, ptr noundef %2, ptr noundef %3, ptr noundef %4) #1 {
  %6 = alloca ptr, align 8
  %7 = alloca ptr, align 8
  %8 = alloca ptr, align 8
  %9 = alloca ptr, align 8
  %10 = alloca ptr, align 8
  store ptr %0, ptr %6, align 8, !tbaa !82
  store ptr %1, ptr %7, align 8, !tbaa !82
  store ptr %2, ptr %8, align 8, !tbaa !82
  store ptr %3, ptr %9, align 8, !tbaa !82
  store ptr %4, ptr %10, align 8, !tbaa !82
  %11 = load ptr, ptr %7, align 8, !tbaa !82
  %12 = getelementptr inbounds i8, ptr %11, i64 0
  %13 = load i8, ptr %12, align 1, !tbaa !76
  %14 = zext i8 %13 to i32
  %15 = load ptr, ptr %8, align 8, !tbaa !82
  %16 = getelementptr inbounds i8, ptr %15, i64 0
  %17 = load i8, ptr %16, align 1, !tbaa !76
  %18 = zext i8 %17 to i32
  %19 = add nsw i32 %14, %18
  %20 = ashr i32 %19, 1
  %21 = load ptr, ptr %9, align 8, !tbaa !82
  %22 = getelementptr inbounds i8, ptr %21, i64 0
  %23 = load i8, ptr %22, align 1, !tbaa !76
  %24 = zext i8 %23 to i32
  %25 = load ptr, ptr %10, align 8, !tbaa !82
  %26 = getelementptr inbounds i8, ptr %25, i64 0
  %27 = load i8, ptr %26, align 1, !tbaa !76
  %28 = zext i8 %27 to i32
  %29 = add nsw i32 %24, %28
  %30 = ashr i32 %29, 1
  %31 = add nsw i32 %20, %30
  %32 = ashr i32 %31, 1
  %33 = trunc i32 %32 to i8
  %34 = load ptr, ptr %6, align 8, !tbaa !82
  %35 = getelementptr inbounds i8, ptr %34, i64 0
  store i8 %33, ptr %35, align 1, !tbaa !76
  %36 = load ptr, ptr %7, align 8, !tbaa !82
  %37 = getelementptr inbounds i8, ptr %36, i64 1
  %38 = load i8, ptr %37, align 1, !tbaa !76
  %39 = zext i8 %38 to i32
  %40 = load ptr, ptr %8, align 8, !tbaa !82
  %41 = getelementptr inbounds i8, ptr %40, i64 1
  %42 = load i8, ptr %41, align 1, !tbaa !76
  %43 = zext i8 %42 to i32
  %44 = add nsw i32 %39, %43
  %45 = ashr i32 %44, 1
  %46 = load ptr, ptr %9, align 8, !tbaa !82
  %47 = getelementptr inbounds i8, ptr %46, i64 1
  %48 = load i8, ptr %47, align 1, !tbaa !76
  %49 = zext i8 %48 to i32
  %50 = load ptr, ptr %10, align 8, !tbaa !82
  %51 = getelementptr inbounds i8, ptr %50, i64 1
  %52 = load i8, ptr %51, align 1, !tbaa !76
  %53 = zext i8 %52 to i32
  %54 = add nsw i32 %49, %53
  %55 = ashr i32 %54, 1
  %56 = add nsw i32 %45, %55
  %57 = ashr i32 %56, 1
  %58 = trunc i32 %57 to i8
  %59 = load ptr, ptr %6, align 8, !tbaa !82
  %60 = getelementptr inbounds i8, ptr %59, i64 1
  store i8 %58, ptr %60, align 1, !tbaa !76
  %61 = load ptr, ptr %7, align 8, !tbaa !82
  %62 = getelementptr inbounds i8, ptr %61, i64 2
  %63 = load i8, ptr %62, align 1, !tbaa !76
  %64 = zext i8 %63 to i32
  %65 = load ptr, ptr %8, align 8, !tbaa !82
  %66 = getelementptr inbounds i8, ptr %65, i64 2
  %67 = load i8, ptr %66, align 1, !tbaa !76
  %68 = zext i8 %67 to i32
  %69 = add nsw i32 %64, %68
  %70 = ashr i32 %69, 1
  %71 = load ptr, ptr %9, align 8, !tbaa !82
  %72 = getelementptr inbounds i8, ptr %71, i64 2
  %73 = load i8, ptr %72, align 1, !tbaa !76
  %74 = zext i8 %73 to i32
  %75 = load ptr, ptr %10, align 8, !tbaa !82
  %76 = getelementptr inbounds i8, ptr %75, i64 2
  %77 = load i8, ptr %76, align 1, !tbaa !76
  %78 = zext i8 %77 to i32
  %79 = add nsw i32 %74, %78
  %80 = ashr i32 %79, 1
  %81 = add nsw i32 %70, %80
  %82 = ashr i32 %81, 1
  %83 = trunc i32 %82 to i8
  %84 = load ptr, ptr %6, align 8, !tbaa !82
  %85 = getelementptr inbounds i8, ptr %84, i64 2
  store i8 %83, ptr %85, align 1, !tbaa !76
  %86 = load ptr, ptr %7, align 8, !tbaa !82
  %87 = getelementptr inbounds i8, ptr %86, i64 3
  %88 = load i8, ptr %87, align 1, !tbaa !76
  %89 = zext i8 %88 to i32
  %90 = load ptr, ptr %8, align 8, !tbaa !82
  %91 = getelementptr inbounds i8, ptr %90, i64 3
  %92 = load i8, ptr %91, align 1, !tbaa !76
  %93 = zext i8 %92 to i32
  %94 = add nsw i32 %89, %93
  %95 = ashr i32 %94, 1
  %96 = load ptr, ptr %9, align 8, !tbaa !82
  %97 = getelementptr inbounds i8, ptr %96, i64 3
  %98 = load i8, ptr %97, align 1, !tbaa !76
  %99 = zext i8 %98 to i32
  %100 = load ptr, ptr %10, align 8, !tbaa !82
  %101 = getelementptr inbounds i8, ptr %100, i64 3
  %102 = load i8, ptr %101, align 1, !tbaa !76
  %103 = zext i8 %102 to i32
  %104 = add nsw i32 %99, %103
  %105 = ashr i32 %104, 1
  %106 = add nsw i32 %95, %105
  %107 = ashr i32 %106, 1
  %108 = trunc i32 %107 to i8
  %109 = load ptr, ptr %6, align 8, !tbaa !82
  %110 = getelementptr inbounds i8, ptr %109, i64 3
  store i8 %108, ptr %110, align 1, !tbaa !76
  ret void
}