; Function Attrs: mustprogress nofree norecurse nosync nounwind willreturn memory(argmem: readwrite) uwtable
define internal void @inv_predict_10(ptr noundef writeonly captures(none) initializes((0, 4)) %0, ptr noundef readonly captures(none) %1, ptr noundef readonly captures(none) %2, ptr noundef readonly captures(none) %3, ptr noundef readonly captures(none) %4) #7 {
  %6 = load i8, ptr %1, align 1, !tbaa !59
  %7 = zext i8 %6 to i16
  %8 = load i8, ptr %2, align 1, !tbaa !59
  %9 = zext i8 %8 to i16
  %10 = add nuw nsw i16 %9, %7
  %11 = lshr i16 %10, 1
  %12 = load i8, ptr %3, align 1, !tbaa !59
  %13 = zext i8 %12 to i16
  %14 = load i8, ptr %4, align 1, !tbaa !59
  %15 = zext i8 %14 to i16
  %16 = add nuw nsw i16 %15, %13
  %17 = lshr i16 %16, 1
  %18 = add nuw nsw i16 %17, %11
  %19 = lshr i16 %18, 1
  %20 = trunc nuw i16 %19 to i8
  store i8 %20, ptr %0, align 1, !tbaa !59
  %21 = getelementptr inbounds nuw i8, ptr %1, i64 1
  %22 = load i8, ptr %21, align 1, !tbaa !59
  %23 = zext i8 %22 to i16
  %24 = getelementptr inbounds nuw i8, ptr %2, i64 1
  %25 = load i8, ptr %24, align 1, !tbaa !59
  %26 = zext i8 %25 to i16
  %27 = add nuw nsw i16 %26, %23
  %28 = lshr i16 %27, 1
  %29 = getelementptr inbounds nuw i8, ptr %3, i64 1
  %30 = load i8, ptr %29, align 1, !tbaa !59
  %31 = zext i8 %30 to i16
  %32 = getelementptr inbounds nuw i8, ptr %4, i64 1
  %33 = load i8, ptr %32, align 1, !tbaa !59
  %34 = zext i8 %33 to i16
  %35 = add nuw nsw i16 %34, %31
  %36 = lshr i16 %35, 1
  %37 = add nuw nsw i16 %36, %28
  %38 = lshr i16 %37, 1
  %39 = trunc nuw i16 %38 to i8
  %40 = getelementptr inbounds nuw i8, ptr %0, i64 1
  store i8 %39, ptr %40, align 1, !tbaa !59
  %41 = getelementptr inbounds nuw i8, ptr %1, i64 2
  %42 = load i8, ptr %41, align 1, !tbaa !59
  %43 = zext i8 %42 to i16
  %44 = getelementptr inbounds nuw i8, ptr %2, i64 2
  %45 = load i8, ptr %44, align 1, !tbaa !59
  %46 = zext i8 %45 to i16
  %47 = add nuw nsw i16 %46, %43
  %48 = lshr i16 %47, 1
  %49 = getelementptr inbounds nuw i8, ptr %3, i64 2
  %50 = load i8, ptr %49, align 1, !tbaa !59
  %51 = zext i8 %50 to i16
  %52 = getelementptr inbounds nuw i8, ptr %4, i64 2
  %53 = load i8, ptr %52, align 1, !tbaa !59
  %54 = zext i8 %53 to i16
  %55 = add nuw nsw i16 %54, %51
  %56 = lshr i16 %55, 1
  %57 = add nuw nsw i16 %56, %48
  %58 = lshr i16 %57, 1
  %59 = trunc nuw i16 %58 to i8
  %60 = getelementptr inbounds nuw i8, ptr %0, i64 2
  store i8 %59, ptr %60, align 1, !tbaa !59
  %61 = getelementptr inbounds nuw i8, ptr %1, i64 3
  %62 = load i8, ptr %61, align 1, !tbaa !59
  %63 = zext i8 %62 to i16
  %64 = getelementptr inbounds nuw i8, ptr %2, i64 3
  %65 = load i8, ptr %64, align 1, !tbaa !59
  %66 = zext i8 %65 to i16
  %67 = add nuw nsw i16 %66, %63
  %68 = lshr i16 %67, 1
  %69 = getelementptr inbounds nuw i8, ptr %3, i64 3
  %70 = load i8, ptr %69, align 1, !tbaa !59
  %71 = zext i8 %70 to i16
  %72 = getelementptr inbounds nuw i8, ptr %4, i64 3
  %73 = load i8, ptr %72, align 1, !tbaa !59
  %74 = zext i8 %73 to i16
  %75 = add nuw nsw i16 %74, %71
  %76 = lshr i16 %75, 1
  %77 = add nuw nsw i16 %76, %68
  %78 = lshr i16 %77, 1
  %79 = trunc nuw i16 %78 to i8
  %80 = getelementptr inbounds nuw i8, ptr %0, i64 3
  store i8 %79, ptr %80, align 1, !tbaa !59
  ret void
}